target datalayout = "e-m:e-p270:32:32-p271:32:32-p272:64:64-i64:64-i128:128-f80:128-n8:16:32:64-S128"
target triple = "x86_64-pc-linux-gnu"

; Function Attrs: nounwind uwtable
define internal i32 @dsa_has(ptr noundef %0, i32 noundef %1) #0 {
  %3 = alloca i32, align 4
  %4 = alloca ptr, align 8
  %5 = alloca i32, align 4
  %6 = alloca ptr, align 8
  %7 = alloca i32, align 4
  %8 = alloca i32, align 4
  store ptr %0, ptr %4, align 8, !tbaa !3
  store i32 %1, ptr %5, align 4, !tbaa !7
  call void @llvm.lifetime.start.p0(i64 8, ptr %6) #7
  %9 = load ptr, ptr %4, align 8, !tbaa !3
  store ptr %9, ptr %6, align 8, !tbaa !27
  call void @llvm.lifetime.start.p0(i64 4, ptr %7) #7
  store i32 1, ptr %7, align 4, !tbaa !7
  %10 = call i32 @ossl_prov_is_running()
  %11 = icmp ne i32 %10, 0
  br i1 %11, label %12, label %15

12:                                               ; preds = %2
  %13 = load ptr, ptr %6, align 8, !tbaa !27
  %14 = icmp eq ptr %13, null
  br i1 %14, label %15, label %16

15:                                               ; preds = %12, %2
  store i32 0, ptr %3, align 4
  store i32 1, ptr %8, align 4
  br label %71

16:                                               ; preds = %12
  %17 = load i32, ptr %5, align 4, !tbaa !7
  %18 = and i32 %17, 7
  %19 = icmp eq i32 %18, 0
  br i1 %19, label %20, label %21

20:                                               ; preds = %16
  store i32 1, ptr %3, align 4
  store i32 1, ptr %8, align 4
  br label %71

21:                                               ; preds = %16
  %22 = load i32, ptr %5, align 4, !tbaa !7
  %23 = and i32 %22, 2
  %24 = icmp ne i32 %23, 0
  br i1 %24, label %25, label %35

25:                                               ; preds = %21
  %26 = load i32, ptr %7, align 4, !tbaa !7
  %27 = icmp ne i32 %26, 0
  br i1 %27, label %28, label %32

28:                                               ; preds = %25
  %29 = load ptr, ptr %6, align 8, !tbaa !27
  %30 = call ptr @DSA_get0_pub_key(ptr noundef %29)
  %31 = icmp ne ptr %30, null
  br label %32

32:                                               ; preds = %28, %25
  %33 = phi i1 [ false, %25 ], [ %31, %28 ]
  %34 = zext i1 %33 to i32
  store i32 %34, ptr %7, align 4, !tbaa !7
  br label %35

35:                                               ; preds = %32, %21
  %36 = load i32, ptr %5, align 4, !tbaa !7
  %37 = and i32 %36, 1
  %38 = icmp ne i32 %37, 0
  br i1 %38, label %39, label %49

39:                                               ; preds = %35
  %40 = load i32, ptr %7, align 4, !tbaa !7
  %41 = icmp ne i32 %40, 0
  br i1 %41, label %42, label %46

42:                                               ; preds = %39
  %43 = load ptr, ptr %6, align 8, !tbaa !27
  %44 = call ptr @DSA_get0_priv_key(ptr noundef %43)
  %45 = icmp ne ptr %44, null
  br label %46

46:                                               ; preds = %42, %39
  %47 = phi i1 [ false, %39 ], [ %45, %42 ]
  %48 = zext i1 %47 to i32
  store i32 %48, ptr %7, align 4, !tbaa !7
  br label %49

49:                                               ; preds = %46, %35
  %50 = load i32, ptr %5, align 4, !tbaa !7
  %51 = and i32 %50, 4
  %52 = icmp ne i32 %51, 0
  br i1 %52, label %53, label %69

53:                                               ; preds = %49
  %54 = load i32, ptr %7, align 4, !tbaa !7
  %55 = icmp ne i32 %54, 0
  br i1 %55, label %56, label %66

56:                                               ; preds = %53
  %57 = load ptr, ptr %6, align 8, !tbaa !27
  %58 = call ptr @DSA_get0_p(ptr noundef %57)
  %59 = icmp ne ptr %58, null
  br i1 %59, label %60, label %64

60:                                               ; preds = %56
  %61 = load ptr, ptr %6, align 8, !tbaa !27
  %62 = call ptr @DSA_get0_g(ptr noundef %61)
  %63 = icmp ne ptr %62, null
  br label %64

64:                                               ; preds = %60, %56
  %65 = phi i1 [ false, %56 ], [ %63, %60 ]
  br label %66

66:                                               ; preds = %64, %53
  %67 = phi i1 [ false, %53 ], [ %65, %64 ]
  %68 = zext i1 %67 to i32
  store i32 %68, ptr %7, align 4, !tbaa !7
  br label %69

69:                                               ; preds = %66, %49
  %70 = load i32, ptr %7, align 4, !tbaa !7
  store i32 %70, ptr %3, align 4
  store i32 1, ptr %8, align 4
  br label %71

71:                                               ; preds = %69, %20, %15
  call void @llvm.lifetime.end.p0(i64 4, ptr %7) #7
  call void @llvm.lifetime.end.p0(i64 8, ptr %6) #7
  %72 = load i32, ptr %3, align 4
  ret i32 %72
}